; Function Attrs: mustprogress nofree norecurse nosync nounwind willreturn memory(argmem: readwrite) uwtable
define void @_ZN5faiss24ProgressiveDimClusteringC2EiiRKNS_34ProgressiveDimClusteringParametersE(ptr nocapture noundef nonnull writeonly align 8 dereferenceable(120) %0, i32 noundef %1, i32 noundef %2, ptr nocapture noundef nonnull readonly align 8 dereferenceable(45) %3) unnamed_addr #3 align 2 {
  %5 = getelementptr inbounds i8, ptr %0, i64 8
  tail call void @llvm.memcpy.p0.p0.i64(ptr noundef nonnull align 8 dereferenceable(48) %5, ptr noundef nonnull align 8 dereferenceable(48) %3, i64 48, i1 false)
  store ptr getelementptr inbounds ({ [4 x ptr] }, ptr @_ZTVN5faiss24ProgressiveDimClusteringE, i64 0, i32 0, i64 2), ptr %0, align 8
  %6 = getelementptr inbounds i8, ptr %0, i64 56
  %7 = sext i32 %1 to i64
  store i64 %7, ptr %6, align 8
  %8 = getelementptr inbounds i8, ptr %0, i64 64
  %9 = sext i32 %2 to i64
  store i64 %9, ptr %8, align 8
  %10 = getelementptr inbounds i8, ptr %0, i64 72
  tail call void @llvm.memset.p0.i64(ptr noundef nonnull align 8 dereferenceable(48) %10, i8 0, i64 48, i1 false)
  ret void
}